target datalayout = "e-m:e-p270:32:32-p271:32:32-p272:64:64-i64:64-i128:128-f80:128-n8:16:32:64-S128"
target triple = "x86_64-pc-linux-gnu"

%struct.timeval = type { i64, i64 }

@libctx = internal global ptr null, align 8
@.str.14 = private unnamed_addr constant [30 x i8] c"../openssl/test/quicapitest.c\00", align 1
@cert = internal global ptr null, align 8
@privkey = internal global ptr null, align 8
@.str.62 = private unnamed_addr constant [5 x i8] c"cctx\00", align 1
@.str.67 = private unnamed_addr constant [49 x i8] c"qtest_create_quic_connection(qtserv, clientquic)\00", align 1
@.str.70 = private unnamed_addr constant [2 x i8] c"0\00", align 1
@.str.83 = private unnamed_addr constant [28 x i8] c"SSL_has_pending(clientquic)\00", align 1
@.str.84 = private unnamed_addr constant [24 x i8] c"SSL_pending(clientquic)\00", align 1
@.str.134 = private unnamed_addr constant [117 x i8] c"qtest_create_quic_objects(libctx, cctx, NULL, cert, privkey, QTEST_FLAG_FAKE_TIME, &qtserv, &clientquic, NULL, NULL)\00", align 1
@.str.342 = private unnamed_addr constant [30 x i8] c"SSL_handle_events(clientquic)\00", align 1
@.str.366 = private unnamed_addr constant [26 x i8] c"SSL_in_before(clientquic)\00", align 1
@.str.367 = private unnamed_addr constant [45 x i8] c"SSL_get_event_timeout(clientquic, &tv, &inf)\00", align 1
@.str.368 = private unnamed_addr constant [4 x i8] c"inf\00", align 1

; Function Attrs: nounwind uwtable
define internal i32 @test_early_ticks() #0 {
  %1 = alloca ptr, align 8
  %2 = alloca ptr, align 8
  %3 = alloca ptr, align 8
  %4 = alloca i32, align 4
  %5 = alloca %struct.timeval, align 8
  %6 = alloca i32, align 4
  call void @llvm.lifetime.start.p0(i64 8, ptr %1) #8
  %7 = load ptr, ptr @libctx, align 8, !tbaa !4
  %8 = call ptr @OSSL_QUIC_client_method()
  %9 = call ptr @SSL_CTX_new_ex(ptr noundef %7, ptr noundef null, ptr noundef %8)
  store ptr %9, ptr %1, align 8, !tbaa !15
  call void @llvm.lifetime.start.p0(i64 8, ptr %2) #8
  store ptr null, ptr %2, align 8, !tbaa !17
  call void @llvm.lifetime.start.p0(i64 8, ptr %3) #8
  store ptr null, ptr %3, align 8, !tbaa !19
  call void @llvm.lifetime.start.p0(i64 4, ptr %4) #8
  store i32 0, ptr %4, align 4, !tbaa !13
  call void @llvm.lifetime.start.p0(i64 16, ptr %5) #8
  call void @llvm.lifetime.start.p0(i64 4, ptr %6) #8
  store i32 0, ptr %6, align 4, !tbaa !13
  %10 = load ptr, ptr %1, align 8, !tbaa !15
  %11 = call i32 @test_ptr(ptr noundef @.str.14, i32 noundef 2445, ptr noundef @.str.62, ptr noundef %10)
  %12 = icmp ne i32 %11, 0
  br i1 %12, label %13, label %23

13:                                               ; preds = %0
  %14 = load ptr, ptr @libctx, align 8, !tbaa !4
  %15 = load ptr, ptr %1, align 8, !tbaa !15
  %16 = load ptr, ptr @cert, align 8, !tbaa !11
  %17 = load ptr, ptr @privkey, align 8, !tbaa !11
  %18 = call i32 @qtest_create_quic_objects(ptr noundef %14, ptr noundef %15, ptr noundef null, ptr noundef %16, ptr noundef %17, i32 noundef 2, ptr noundef %3, ptr noundef %2, ptr noundef null, ptr noundef null)
  %19 = icmp ne i32 %18, 0
  %20 = zext i1 %19 to i32
  %21 = call i32 @test_true(ptr noundef @.str.14, i32 noundef 2449, ptr noundef @.str.134, i32 noundef %20)
  %22 = icmp ne i32 %21, 0
  br i1 %22, label %24, label %23

23:                                               ; preds = %13, %0
  br label %93

24:                                               ; preds = %13
  %25 = load ptr, ptr %2, align 8, !tbaa !17
  %26 = call i32 @SSL_in_before(ptr noundef %25)
  %27 = icmp ne i32 %26, 0
  %28 = zext i1 %27 to i32
  %29 = call i32 @test_true(ptr noundef @.str.14, i32 noundef 2452, ptr noundef @.str.366, i32 noundef %28)
  %30 = icmp ne i32 %29, 0
  br i1 %30, label %32, label %31

31:                                               ; preds = %24
  br label %93

32:                                               ; preds = %24
  %33 = load ptr, ptr %2, align 8, !tbaa !17
  %34 = call i32 @SSL_handle_events(ptr noundef %33)
  %35 = icmp ne i32 %34, 0
  %36 = zext i1 %35 to i32
  %37 = call i32 @test_true(ptr noundef @.str.14, i32 noundef 2455, ptr noundef @.str.342, i32 noundef %36)
  %38 = icmp ne i32 %37, 0
  br i1 %38, label %40, label %39

39:                                               ; preds = %32
  br label %93

40:                                               ; preds = %32
  %41 = load ptr, ptr %2, align 8, !tbaa !17
  %42 = call i32 @SSL_get_event_timeout(ptr noundef %41, ptr noundef %5, ptr noundef %6)
  %43 = icmp ne i32 %42, 0
  %44 = zext i1 %43 to i32
  %45 = call i32 @test_true(ptr noundef @.str.14, i32 noundef 2458, ptr noundef @.str.367, i32 noundef %44)
  %46 = icmp ne i32 %45, 0
  br i1 %46, label %47, label %53

47:                                               ; preds = %40
  %48 = load i32, ptr %6, align 4, !tbaa !13
  %49 = icmp ne i32 %48, 0
  %50 = zext i1 %49 to i32
  %51 = call i32 @test_true(ptr noundef @.str.14, i32 noundef 2459, ptr noundef @.str.368, i32 noundef %50)
  %52 = icmp ne i32 %51, 0
  br i1 %52, label %54, label %53

53:                                               ; preds = %47, %40
  br label %93

54:                                               ; preds = %47
  %55 = load ptr, ptr %2, align 8, !tbaa !17
  %56 = call i32 @SSL_has_pending(ptr noundef %55)
  %57 = icmp ne i32 %56, 0
  %58 = zext i1 %57 to i32
  %59 = call i32 @test_false(ptr noundef @.str.14, i32 noundef 2462, ptr noundef @.str.83, i32 noundef %58)
  %60 = icmp ne i32 %59, 0
  br i1 %60, label %61, label %66

61:                                               ; preds = %54
  %62 = load ptr, ptr %2, align 8, !tbaa !17
  %63 = call i32 @SSL_pending(ptr noundef %62)
  %64 = call i32 @test_int_eq(ptr noundef @.str.14, i32 noundef 2463, ptr noundef @.str.84, ptr noundef @.str.70, i32 noundef %63, i32 noundef 0)
  %65 = icmp ne i32 %64, 0
  br i1 %65, label %67, label %66

66:                                               ; preds = %61, %54
  br label %93

67:                                               ; preds = %61
  %68 = load ptr, ptr %2, align 8, !tbaa !17
  %69 = call i32 @SSL_in_before(ptr noundef %68)
  %70 = icmp ne i32 %69, 0
  %71 = zext i1 %70 to i32
  %72 = call i32 @test_true(ptr noundef @.str.14, i32 noundef 2466, ptr noundef @.str.366, i32 noundef %71)
  %73 = icmp ne i32 %72, 0
  br i1 %73, label %75, label %74

74:                                               ; preds = %67
  br label %93

75:                                               ; preds = %67
  %76 = load ptr, ptr %3, align 8, !tbaa !19
  %77 = load ptr, ptr %2, align 8, !tbaa !17
  %78 = call i32 @qtest_create_quic_connection(ptr noundef %76, ptr noundef %77)
  %79 = icmp ne i32 %78, 0
  %80 = zext i1 %79 to i32
  %81 = call i32 @test_true(ptr noundef @.str.14, i32 noundef 2469, ptr noundef @.str.67, i32 noundef %80)
  %82 = icmp ne i32 %81, 0
  br i1 %82, label %84, label %83

83:                                               ; preds = %75
  br label %93

84:                                               ; preds = %75
  %85 = load ptr, ptr %2, align 8, !tbaa !17
  %86 = call i32 @SSL_in_before(ptr noundef %85)
  %87 = icmp ne i32 %86, 0
  %88 = zext i1 %87 to i32
  %89 = call i32 @test_false(ptr noundef @.str.14, i32 noundef 2472, ptr noundef @.str.366, i32 noundef %88)
  %90 = icmp ne i32 %89, 0
  br i1 %90, label %92, label %91

91:                                               ; preds = %84
  br label %93

92:                                               ; preds = %84
  store i32 1, ptr %4, align 4, !tbaa !13
  br label %93

93:                                               ; preds = %92, %91, %83, %74, %66, %53, %39, %31, %23
  %94 = load ptr, ptr %2, align 8, !tbaa !17
  call void @SSL_free(ptr noundef %94)
  %95 = load ptr, ptr %1, align 8, !tbaa !15
  call void @SSL_CTX_free(ptr noundef %95)
  %96 = load ptr, ptr %3, align 8, !tbaa !19
  call void @ossl_quic_tserver_free(ptr noundef %96)
  %97 = load i32, ptr %4, align 4, !tbaa !13
  call void @llvm.lifetime.end.p0(i64 4, ptr %6) #8
  call void @llvm.lifetime.end.p0(i64 16, ptr %5) #8
  call void @llvm.lifetime.end.p0(i64 4, ptr %4) #8
  call void @llvm.lifetime.end.p0(i64 8, ptr %3) #8
  call void @llvm.lifetime.end.p0(i64 8, ptr %2) #8
  call void @llvm.lifetime.end.p0(i64 8, ptr %1) #8
  ret i32 %97
}