; Function Attrs: nounwind uwtable
define internal range(i32 0, 2) i32 @test_early_ticks() #1 {
  %1 = alloca ptr, align 8
  %2 = alloca ptr, align 8
  %3 = alloca %struct.timeval, align 8
  %4 = alloca i32, align 4
  %5 = load ptr, ptr @libctx, align 8, !tbaa !4
  %6 = tail call ptr @OSSL_QUIC_client_method() #10
  %7 = tail call ptr @SSL_CTX_new_ex(ptr noundef %5, ptr noundef null, ptr noundef %6) #10
  call void @llvm.lifetime.start.p0(i64 8, ptr nonnull %1) #10
  store ptr null, ptr %1, align 8, !tbaa !13
  call void @llvm.lifetime.start.p0(i64 8, ptr nonnull %2) #10
  store ptr null, ptr %2, align 8, !tbaa !15
  call void @llvm.lifetime.start.p0(i64 16, ptr nonnull %3) #10
  call void @llvm.lifetime.start.p0(i64 4, ptr nonnull %4) #10
  store i32 0, ptr %4, align 4, !tbaa !19
  %8 = tail call i32 @test_ptr(ptr noundef nonnull @.str.14, i32 noundef 2445, ptr noundef nonnull @.str.62, ptr noundef %7) #10
  %.not = icmp eq i32 %8, 0
  br i1 %.not, label %69, label %9

9:                                                ; preds = %0
  %10 = load ptr, ptr @libctx, align 8, !tbaa !4
  %11 = load ptr, ptr @cert, align 8, !tbaa !11
  %12 = load ptr, ptr @privkey, align 8, !tbaa !11
  %13 = call i32 @qtest_create_quic_objects(ptr noundef %10, ptr noundef %7, ptr noundef null, ptr noundef %11, ptr noundef %12, i32 noundef 2, ptr noundef nonnull %2, ptr noundef nonnull %1, ptr noundef null, ptr noundef null) #10
  %14 = icmp ne i32 %13, 0
  %15 = zext i1 %14 to i32
  %16 = call i32 @test_true(ptr noundef nonnull @.str.14, i32 noundef 2449, ptr noundef nonnull @.str.134, i32 noundef %15) #10
  %.not3 = icmp eq i32 %16, 0
  br i1 %.not3, label %69, label %17

17:                                               ; preds = %9
  %18 = load ptr, ptr %1, align 8, !tbaa !13
  %19 = call i32 @SSL_in_before(ptr noundef %18) #10
  %20 = icmp ne i32 %19, 0
  %21 = zext i1 %20 to i32
  %22 = call i32 @test_true(ptr noundef nonnull @.str.14, i32 noundef 2452, ptr noundef nonnull @.str.366, i32 noundef %21) #10
  %.not4 = icmp eq i32 %22, 0
  br i1 %.not4, label %69, label %23

23:                                               ; preds = %17
  %24 = load ptr, ptr %1, align 8, !tbaa !13
  %25 = call i32 @SSL_handle_events(ptr noundef %24) #10
  %26 = icmp ne i32 %25, 0
  %27 = zext i1 %26 to i32
  %28 = call i32 @test_true(ptr noundef nonnull @.str.14, i32 noundef 2455, ptr noundef nonnull @.str.342, i32 noundef %27) #10
  %.not5 = icmp eq i32 %28, 0
  br i1 %.not5, label %69, label %29

29:                                               ; preds = %23
  %30 = load ptr, ptr %1, align 8, !tbaa !13
  %31 = call i32 @SSL_get_event_timeout(ptr noundef %30, ptr noundef nonnull %3, ptr noundef nonnull %4) #10
  %32 = icmp ne i32 %31, 0
  %33 = zext i1 %32 to i32
  %34 = call i32 @test_true(ptr noundef nonnull @.str.14, i32 noundef 2458, ptr noundef nonnull @.str.367, i32 noundef %33) #10
  %.not6 = icmp eq i32 %34, 0
  br i1 %.not6, label %69, label %35

35:                                               ; preds = %29
  %36 = load i32, ptr %4, align 4, !tbaa !19
  %37 = icmp ne i32 %36, 0
  %38 = zext i1 %37 to i32
  %39 = call i32 @test_true(ptr noundef nonnull @.str.14, i32 noundef 2459, ptr noundef nonnull @.str.368, i32 noundef %38) #10
  %.not7 = icmp eq i32 %39, 0
  br i1 %.not7, label %69, label %40

40:                                               ; preds = %35
  %41 = load ptr, ptr %1, align 8, !tbaa !13
  %42 = call i32 @SSL_has_pending(ptr noundef %41) #10
  %43 = icmp ne i32 %42, 0
  %44 = zext i1 %43 to i32
  %45 = call i32 @test_false(ptr noundef nonnull @.str.14, i32 noundef 2462, ptr noundef nonnull @.str.83, i32 noundef %44) #10
  %.not8 = icmp eq i32 %45, 0
  br i1 %.not8, label %69, label %46

46:                                               ; preds = %40
  %47 = load ptr, ptr %1, align 8, !tbaa !13
  %48 = call i32 @SSL_pending(ptr noundef %47) #10
  %49 = call i32 @test_int_eq(ptr noundef nonnull @.str.14, i32 noundef 2463, ptr noundef nonnull @.str.84, ptr noundef nonnull @.str.70, i32 noundef %48, i32 noundef 0) #10
  %.not9 = icmp eq i32 %49, 0
  br i1 %.not9, label %69, label %50

50:                                               ; preds = %46
  %51 = load ptr, ptr %1, align 8, !tbaa !13
  %52 = call i32 @SSL_in_before(ptr noundef %51) #10
  %53 = icmp ne i32 %52, 0
  %54 = zext i1 %53 to i32
  %55 = call i32 @test_true(ptr noundef nonnull @.str.14, i32 noundef 2466, ptr noundef nonnull @.str.366, i32 noundef %54) #10
  %.not10 = icmp eq i32 %55, 0
  br i1 %.not10, label %69, label %56

56:                                               ; preds = %50
  %57 = load ptr, ptr %2, align 8, !tbaa !15
  %58 = load ptr, ptr %1, align 8, !tbaa !13
  %59 = call i32 @qtest_create_quic_connection(ptr noundef %57, ptr noundef %58) #10
  %60 = icmp ne i32 %59, 0
  %61 = zext i1 %60 to i32
  %62 = call i32 @test_true(ptr noundef nonnull @.str.14, i32 noundef 2469, ptr noundef nonnull @.str.67, i32 noundef %61) #10
  %.not11 = icmp eq i32 %62, 0
  br i1 %.not11, label %69, label %63

63:                                               ; preds = %56
  %64 = load ptr, ptr %1, align 8, !tbaa !13
  %65 = call i32 @SSL_in_before(ptr noundef %64) #10
  %66 = icmp ne i32 %65, 0
  %67 = zext i1 %66 to i32
  %68 = call i32 @test_false(ptr noundef nonnull @.str.14, i32 noundef 2472, ptr noundef nonnull @.str.366, i32 noundef %67) #10
  %.not12 = icmp ne i32 %68, 0
  %spec.select = zext i1 %.not12 to i32
  br label %69

69:                                               ; preds = %63, %56, %50, %40, %46, %29, %35, %23, %17, %0, %9
  %.0 = phi i32 [ 0, %56 ], [ 0, %50 ], [ 0, %46 ], [ 0, %40 ], [ 0, %35 ], [ 0, %29 ], [ 0, %23 ], [ 0, %17 ], [ 0, %9 ], [ 0, %0 ], [ %spec.select, %63 ]
  %70 = load ptr, ptr %1, align 8, !tbaa !13
  call void @SSL_free(ptr noundef %70) #10
  call void @SSL_CTX_free(ptr noundef %7) #10
  %71 = load ptr, ptr %2, align 8, !tbaa !15
  call void @ossl_quic_tserver_free(ptr noundef %71) #10
  call void @llvm.lifetime.end.p0(i64 4, ptr nonnull %4) #10
  call void @llvm.lifetime.end.p0(i64 16, ptr nonnull %3) #10
  call void @llvm.lifetime.end.p0(i64 8, ptr nonnull %2) #10
  call void @llvm.lifetime.end.p0(i64 8, ptr nonnull %1) #10
  ret i32 %.0
}